; Function Attrs: nounwind uwtable
define noundef ptr @Extra_bddCreateExor(ptr noundef %0, i32 noundef %1) local_unnamed_addr #0 {
  %3 = tail call ptr @Cudd_ReadLogicZero(ptr noundef %0) #19
  tail call void @Cudd_Ref(ptr noundef %3) #19
  %4 = icmp sgt i32 %1, 0
  br i1 %4, label %.lr.ph, label %._crit_edge

.lr.ph:                                           ; preds = %2, %.lr.ph
  %.015 = phi i32 [ %7, %.lr.ph ], [ 0, %2 ]
  %.01314 = phi ptr [ %6, %.lr.ph ], [ %3, %2 ]
  %5 = tail call ptr @Cudd_bddIthVar(ptr noundef %0, i32 noundef %.015) #19
  %6 = tail call ptr @Cudd_bddXor(ptr noundef %0, ptr noundef %.01314, ptr noundef %5) #19
  tail call void @Cudd_Ref(ptr noundef %6) #19
  tail call void @Cudd_RecursiveDeref(ptr noundef %0, ptr noundef %.01314) #19
  %7 = add nuw nsw i32 %.015, 1
  %exitcond.not = icmp eq i32 %7, %1
  br i1 %exitcond.not, label %._crit_edge, label %.lr.ph, !llvm.loop !61

._crit_edge:                                      ; preds = %.lr.ph, %2
  %.013.lcssa = phi ptr [ %3, %2 ], [ %6, %.lr.ph ]
  tail call void @Cudd_Deref(ptr noundef %.013.lcssa) #19
  ret ptr %.013.lcssa
}